; Function Attrs: mustprogress nounwind uwtable
define hidden noundef zeroext i1 @_ZN2os17is_readable_rangeEPKvS1_(ptr noundef %0, ptr noundef %1) local_unnamed_addr #3 align 2 {
  %3 = ptrtoint ptr %1 to i64
  %.not = icmp ult ptr %0, %1
  br i1 %.not, label %4, label %.loopexit

4:                                                ; preds = %2
  %5 = ptrtoint ptr %0 to i64
  %6 = and i64 %5, -4096
  %7 = icmp ult i64 %6, %3
  br i1 %7, label %.lr.ph, label %.loopexit

.lr.ph:                                           ; preds = %4, %_ZN2os19is_readable_pointerEPKv.exit.thread
  %.011 = phi i64 [ %11, %_ZN2os19is_readable_pointerEPKv.exit.thread ], [ %6, %4 ]
  %8 = inttoptr i64 %.011 to ptr
  %9 = tail call noundef i32 @SafeFetch32_impl(ptr noundef %8, i32 noundef -889275714) #28
  %.not.i = icmp eq i32 %9, -889275714
  br i1 %.not.i, label %_ZN2os19is_readable_pointerEPKv.exit, label %_ZN2os19is_readable_pointerEPKv.exit.thread

_ZN2os19is_readable_pointerEPKv.exit:             ; preds = %.lr.ph
  %10 = tail call noundef i32 @SafeFetch32_impl(ptr noundef %8, i32 noundef -559038737) #28
  %.not10 = icmp eq i32 %10, -559038737
  br i1 %.not10, label %.loopexit, label %_ZN2os19is_readable_pointerEPKv.exit.thread

_ZN2os19is_readable_pointerEPKv.exit.thread:      ; preds = %.lr.ph, %_ZN2os19is_readable_pointerEPKv.exit
  %11 = add i64 %.011, 4096
  %12 = icmp ult i64 %11, %3
  br i1 %12, label %.lr.ph, label %.loopexit, !llvm.loop !21

.loopexit:                                        ; preds = %_ZN2os19is_readable_pointerEPKv.exit, %_ZN2os19is_readable_pointerEPKv.exit.thread, %4, %2
  %.07 = phi i1 [ false, %2 ], [ true, %4 ], [ false, %_ZN2os19is_readable_pointerEPKv.exit ], [ true, %_ZN2os19is_readable_pointerEPKv.exit.thread ]
  ret i1 %.07
}